Certificate:
    Data:
        Version: 3 (0x2)
        Serial Number: 1 (0x1)
    Signature Algorithm: sha256WithRSAEncryption
        Issuer: C=US, ST=Unset, L=Unset, O=Unset, CN=www.example.com
        Validity
            Not Before: Jul 22 11:22:16 2015 GMT
            Not After : Jul 19 11:22:16 2025 GMT
        Subject: C=US, ST=Unset, O=Unset, CN=www.example.com
        Subject Public Key Info:
            Public Key Algorithm: rsaEncryption
                Public-Key: (2048 bit)
                Modulus:
                    00:ac:92:95:98:68:c7:6e:e7:df:76:84:63:8d:35:
                    e6:ef:a0:bc:2a:69:64:cf:1e:bd:e7:78:63:1a:fd:
                    5b:fa:78:53:78:a9:60:4b:16:9c:10:85:11:49:f0:
                    b3:e7:96:a4:fa:62:84:7d:70:b0:ec:71:6c:a2:df:
                    16:f6:a3:26:ef:e2:0e:cc:d7:7f:73:ac:dd:fb:24:
                    7e:d7:33:cf:f6:84:4c:c1:70:89:77:80:c9:63:20:
                    70:3c:8f:43:ad:a3:2e:a4:ed:c4:38:ae:c1:4c:21:
                    4a:a1:03:57:17:af:47:0f:99:6d:5f:c0:72:f2:93:
                    77:f3:8f:d1:75:2c:c4:89:40:d3:57:46:17:3e:a2:
                    1d:d3:b7:b4:ca:c8:05:5f:1a:45:a2:b5:61:6d:76:
                    c7:79:2b:2d:56:d5:51:c3:70:db:54:72:a2:11:f1:
                    e0:d7:f0:f4:5e:73:04:70:fa:c9:c5:87:ee:8c:47:
                    c3:fb:77:90:12:5c:cf:eb:ab:13:64:70:e6:e6:1c:
                    75:01:e3:96:31:06:28:3b:2c:90:78:a1:cf:72:9d:
                    90:d7:cb:cb:fd:9e:1a:3d:9f:61:fb:43:c5:0d:36:
                    f2:90:8a:d0:50:e4:e7:3c:a0:b4:62:96:ec:ad:27:
                    12:a6:68:59:69:a9:c4:ea:ba:d2:55:6e:e8:9e:2f:
                    2d:d1
                Exponent: 65537 (0x10001)
        X509v3 extensions:
            X509v3 Basic Constraints: 
                CA:FALSE
            X509v3 Subject Key Identifier: 
                B7:66:47:FC:9D:4D:5A:09:CF:D3:62:99:7B:25:76:7D:D6:01:30:24
            X509v3 Authority Key Identifier: 
                keyid:D5:AA:68:5B:7E:CF:F8:36:1A:D9:0A:9D:4C:C6:52:3D:EB:74:89:08

    Signature Algorithm: sha256WithRSAEncryption
         53:1a:e7:d5:e1:4a:00:16:1c:b3:e7:79:0b:20:5c:24:09:7f:
         f9:5c:a6:1c:59:c2:71:6f:f3:d5:44:9d:29:34:70:9f:a6:ea:
         35:ac:4b:ad:4f:b8:93:e5:cf:46:95:dd:23:3d:79:26:eb:c9:
         3b:fb:6e:e6:51:5f:b7:c1:d4:2b:47:b3:6f:29:eb:a3:b8:49:
         ed:f1:9f:8c:ad:39:92:3a:0c:f6:e4:4c:c6:93:86:4e:be:cf:
         82:f6:9f:c4:ae:ae:d9:5c:aa:b8:66:00:2f:6c:18:4d:7d:7d:
         1e:b8:89:c4:34:2c:1a:6a:66:17:52:88:77:e4:28:83:ec:3a:
         f4:3f:08:fb:33:45:2b:a5:55:c8:27:b5:33:b6:df:7b:c1:42:
         be:a9:32:55:db:4b:d1:53:68:61:91:f9:b7:1b:59:d8:d2:f9:
         99:d4:e4:07:e9:28:0c:04:de:c6:2a:22:83:a7:1e:e0:8e:f2:
         0b:43:0f:76:e5:0d:43:f0:64:0d:7c:bf:07:0a:33:79:d4:df:
         67:85:54:76:5a:20:e2:e4:a2:df:08:e6:9d:87:53:67:0a:66:
         ee:e8:e2:6e:dc:4d:a8:69:55:88:54:b2:ca:f1:9c:9d:ef:f3:
         fe:d5:4c:86:d6:b6:9c:52:d1:e1:0f:5f:7a:ff:9d:ed:dd:3a:
         20:f6:1e:b1
-----BEGIN CERTIFICATE-----
MIIDZjCCAk6gAwIBAgIBATANBgkqhkiG9w0BAQsFADBXMQswCQYDVQQGEwJVUzEO
MAwGA1UECAwFVW5zZXQxDjAMBgNVBAcMBVVuc2V0MQ4wDAYDVQQKDAVVbnNldDEY
MBYGA1UEAwwPd3d3LmV4YW1wbGUuY29tMB4XDTE1MDcyMjExMjIxNloXDTI1MDcx
OTExMjIxNlowRzELMAkGA1UEBhMCVVMxDjAMBgNVBAgMBVVuc2V0MQ4wDAYDVQQK
DAVVbnNldDEYMBYGA1UEAwwPd3d3LmV4YW1wbGUuY29tMIIBIjANBgkqhkiG9w0B
AQEFAAOCAQ8AMIIBCgKCAQEArJKVmGjHbuffdoRjjTXm76C8Kmlkzx6953hjGv1b
+nhTeKlgSxacEIURSfCz55ak+mKEfXCw7HFsot8W9qMm7+IOzNd/c6zd+yR+1zPP
9oRMwXCJd4DJYyBwPI9DraMupO3EOK7BTCFKoQNXF69HD5ltX8By8pN384/RdSzE
iUDTV0YXPqId07e0ysgFXxpForVhbXbHeSstVtVRw3DbVHKiEfHg1/D0XnMEcPrJ
xYfujEfD+3eQElzP66sTZHDm5hx1AeOWMQYoOyyQeKHPcp2Q18vL/Z4aPZ9h+0PF
DTbykIrQUOTnPKC0YpbsrScSpmhZaanE6rrSVW7oni8t0QIDAQABo00wSzAJBgNV
HRMEAjAAMB0GA1UdDgQWBBS3Zkf8nU1aCc/TYpl7JXZ91gEwJDAfBgNVHSMEGDAW
gBTVqmhbfs/4NhrZCp1MxlI963SJCDANBgkqhkiG9w0BAQsFAAOCAQEAUxrn1eFK
ABYcs+d5CyBcJAl/+VymHFnCcW/z1USdKTRwn6bqNaxLrU+4k+XPRpXdIz15JuvJ
O/tu5lFft8HUK0ezbynro7hJ7fGfjK05kjoM9uRMxpOGTr7PgvafxK6u2VyquGYA
L2wYTX19HriJxDQsGmpmF1KId+Qog+w69D8I+zNFK6VVyCe1M7bfe8FCvqkyVdtL
0VNoYZH5txtZ2NL5mdTkB+koDATexioig6ce4I7yC0MPduUNQ/BkDXy/BwozedTf
Z4VUdlog4uSi3wjmnYdTZwpm7ujibtxNqGlViFSyyvGcne/z/tVMhta2nFLR4Q9f
ev+d7d06IPYesQ==
-----END CERTIFICATE-----
